target datalayout = "e-m:e-p270:32:32-p271:32:32-p272:64:64-i64:64-i128:128-f80:128-n8:16:32:64-S128"
target triple = "x86_64-pc-linux-gnu"

%struct.srtp_protection_profile_st = type { ptr, i64 }

@bio_s_out = internal global ptr null, align 8
@s_brief = internal global i32 0, align 4
@.str.412 = private unnamed_addr constant [27 x i8] c"../openssl/apps/s_server.c\00", align 1
@keymatexportlabel = internal global ptr null, align 8
@keymatexportlen = internal global i32 20, align 4
@enable_client_rpk = internal global i32 0, align 4
@.str.477 = private unnamed_addr constant [2 x i8] c"\0A\00", align 1
@.str.540 = private unnamed_addr constant [20 x i8] c"Client certificate\0A\00", align 1
@.str.541 = private unnamed_addr constant [44 x i8] c"Server-to-client raw public key negotiated\0A\00", align 1
@.str.542 = private unnamed_addr constant [44 x i8] c"Client-to-server raw public key negotiated\0A\00", align 1
@.str.543 = private unnamed_addr constant [23 x i8] c"Client raw public key\0A\00", align 1
@.str.544 = private unnamed_addr constant [19 x i8] c"Shared ciphers:%s\0A\00", align 1
@.str.545 = private unnamed_addr constant [14 x i8] c"CIPHER is %s\0A\00", align 1
@.str.546 = private unnamed_addr constant [7 x i8] c"(NONE)\00", align 1
@.str.547 = private unnamed_addr constant [14 x i8] c"NEXTPROTO is \00", align 1
@.str.548 = private unnamed_addr constant [39 x i8] c"SRTP Extension negotiated, profile=%s\0A\00", align 1
@.str.549 = private unnamed_addr constant [19 x i8] c"Reused session-id\0A\00", align 1
@.str.550 = private unnamed_addr constant [27 x i8] c"Renegotiation is DISABLED\0A\00", align 1
@.str.551 = private unnamed_addr constant [27 x i8] c"Keying material exporter:\0A\00", align 1
@.str.552 = private unnamed_addr constant [17 x i8] c"    Label: '%s'\0A\00", align 1
@.str.553 = private unnamed_addr constant [22 x i8] c"    Length: %i bytes\0A\00", align 1
@.str.554 = private unnamed_addr constant [11 x i8] c"export key\00", align 1
@.str.555 = private unnamed_addr constant [11 x i8] c"    Error\0A\00", align 1
@.str.556 = private unnamed_addr constant [22 x i8] c"    Keying material: \00", align 1
@.str.557 = private unnamed_addr constant [5 x i8] c"%02X\00", align 1

; Function Attrs: nounwind uwtable
define internal void @print_connection_info(ptr noundef %0) #0 {
  %2 = alloca ptr, align 8
  %3 = alloca ptr, align 8
  %4 = alloca ptr, align 8
  %5 = alloca [8192 x i8], align 16
  %6 = alloca ptr, align 8
  %7 = alloca i32, align 4
  %8 = alloca ptr, align 8
  %9 = alloca i32, align 4
  %10 = alloca ptr, align 8
  %11 = alloca ptr, align 8
  store ptr %0, ptr %2, align 8, !tbaa !73
  call void @llvm.lifetime.start.p0(i64 8, ptr %3) #10
  call void @llvm.lifetime.start.p0(i64 8, ptr %4) #10
  call void @llvm.lifetime.start.p0(i64 8192, ptr %5) #10
  call void @llvm.lifetime.start.p0(i64 8, ptr %6) #10
  call void @llvm.lifetime.start.p0(i64 4, ptr %7) #10
  call void @llvm.lifetime.start.p0(i64 8, ptr %8) #10
  call void @llvm.lifetime.start.p0(i64 4, ptr %9) #10
  %12 = load i32, ptr @s_brief, align 4, !tbaa !4
  %13 = icmp ne i32 %12, 0
  br i1 %13, label %14, label %16

14:                                               ; preds = %1
  %15 = load ptr, ptr %2, align 8, !tbaa !73
  call void @print_ssl_summary(ptr noundef %15)
  br label %16

16:                                               ; preds = %14, %1
  %17 = load ptr, ptr @bio_s_out, align 8, !tbaa !35
  %18 = load ptr, ptr %2, align 8, !tbaa !73
  %19 = call ptr @SSL_get_session(ptr noundef %18)
  %20 = call i32 @PEM_write_bio_SSL_SESSION(ptr noundef %17, ptr noundef %19)
  %21 = load ptr, ptr %2, align 8, !tbaa !73
  %22 = call ptr @SSL_get0_peer_certificate(ptr noundef %21)
  store ptr %22, ptr %4, align 8, !tbaa !27
  %23 = load ptr, ptr %4, align 8, !tbaa !27
  %24 = icmp ne ptr %23, null
  br i1 %24, label %25, label %33

25:                                               ; preds = %16
  %26 = load ptr, ptr @bio_s_out, align 8, !tbaa !35
  %27 = call i32 (ptr, ptr, ...) @BIO_printf(ptr noundef %26, ptr noundef @.str.540)
  %28 = load ptr, ptr @bio_s_out, align 8, !tbaa !35
  %29 = load ptr, ptr %4, align 8, !tbaa !27
  %30 = call i32 @PEM_write_bio_X509(ptr noundef %28, ptr noundef %29)
  %31 = load ptr, ptr @bio_s_out, align 8, !tbaa !35
  %32 = load ptr, ptr %4, align 8, !tbaa !27
  call void @dump_cert_text(ptr noundef %31, ptr noundef %32)
  store ptr null, ptr %4, align 8, !tbaa !27
  br label %33

33:                                               ; preds = %25, %16
  %34 = load ptr, ptr %2, align 8, !tbaa !73
  %35 = call i32 @SSL_get_negotiated_server_cert_type(ptr noundef %34)
  %36 = icmp eq i32 %35, 2
  br i1 %36, label %37, label %40

37:                                               ; preds = %33
  %38 = load ptr, ptr @bio_s_out, align 8, !tbaa !35
  %39 = call i32 (ptr, ptr, ...) @BIO_printf(ptr noundef %38, ptr noundef @.str.541)
  br label %40

40:                                               ; preds = %37, %33
  %41 = load ptr, ptr %2, align 8, !tbaa !73
  %42 = call i32 @SSL_get_negotiated_client_cert_type(ptr noundef %41)
  %43 = icmp eq i32 %42, 2
  br i1 %43, label %44, label %47

44:                                               ; preds = %40
  %45 = load ptr, ptr @bio_s_out, align 8, !tbaa !35
  %46 = call i32 (ptr, ptr, ...) @BIO_printf(ptr noundef %45, ptr noundef @.str.542)
  br label %47

47:                                               ; preds = %44, %40
  %48 = load i32, ptr @enable_client_rpk, align 4, !tbaa !4
  %49 = icmp ne i32 %48, 0
  br i1 %49, label %50, label %62

50:                                               ; preds = %47
  call void @llvm.lifetime.start.p0(i64 8, ptr %10) #10
  %51 = load ptr, ptr %2, align 8, !tbaa !73
  %52 = call ptr @SSL_get0_peer_rpk(ptr noundef %51)
  store ptr %52, ptr %10, align 8, !tbaa !13
  %53 = load ptr, ptr %10, align 8, !tbaa !13
  %54 = icmp ne ptr %53, null
  br i1 %54, label %55, label %61

55:                                               ; preds = %50
  %56 = load ptr, ptr @bio_s_out, align 8, !tbaa !35
  %57 = call i32 (ptr, ptr, ...) @BIO_printf(ptr noundef %56, ptr noundef @.str.543)
  %58 = load ptr, ptr @bio_s_out, align 8, !tbaa !35
  %59 = load ptr, ptr %10, align 8, !tbaa !13
  %60 = call i32 @EVP_PKEY_print_public(ptr noundef %58, ptr noundef %59, i32 noundef 2, ptr noundef null)
  br label %61

61:                                               ; preds = %55, %50
  call void @llvm.lifetime.end.p0(i64 8, ptr %10) #10
  br label %62

62:                                               ; preds = %61, %47
  %63 = load ptr, ptr %2, align 8, !tbaa !73
  %64 = getelementptr inbounds [8192 x i8], ptr %5, i64 0, i64 0
  %65 = call ptr @SSL_get_shared_ciphers(ptr noundef %63, ptr noundef %64, i32 noundef 8192)
  %66 = icmp ne ptr %65, null
  br i1 %66, label %67, label %71

67:                                               ; preds = %62
  %68 = load ptr, ptr @bio_s_out, align 8, !tbaa !35
  %69 = getelementptr inbounds [8192 x i8], ptr %5, i64 0, i64 0
  %70 = call i32 (ptr, ptr, ...) @BIO_printf(ptr noundef %68, ptr noundef @.str.544, ptr noundef %69)
  br label %71

71:                                               ; preds = %67, %62
  %72 = load ptr, ptr %2, align 8, !tbaa !73
  %73 = call ptr @SSL_get_current_cipher(ptr noundef %72)
  %74 = call ptr @SSL_CIPHER_get_name(ptr noundef %73)
  store ptr %74, ptr %3, align 8, !tbaa !31
  %75 = load ptr, ptr @bio_s_out, align 8, !tbaa !35
  %76 = load ptr, ptr %2, align 8, !tbaa !73
  %77 = call i32 @ssl_print_sigalgs(ptr noundef %75, ptr noundef %76)
  %78 = load ptr, ptr @bio_s_out, align 8, !tbaa !35
  %79 = load ptr, ptr %2, align 8, !tbaa !73
  %80 = call i32 @ssl_print_point_formats(ptr noundef %78, ptr noundef %79)
  %81 = load ptr, ptr @bio_s_out, align 8, !tbaa !35
  %82 = load ptr, ptr %2, align 8, !tbaa !73
  %83 = call i32 @ssl_print_groups(ptr noundef %81, ptr noundef %82, i32 noundef 0)
  %84 = load ptr, ptr @bio_s_out, align 8, !tbaa !35
  %85 = load ptr, ptr %2, align 8, !tbaa !73
  call void @print_ca_names(ptr noundef %84, ptr noundef %85)
  %86 = load ptr, ptr @bio_s_out, align 8, !tbaa !35
  %87 = load ptr, ptr %3, align 8, !tbaa !31
  %88 = icmp ne ptr %87, null
  br i1 %88, label %89, label %91

89:                                               ; preds = %71
  %90 = load ptr, ptr %3, align 8, !tbaa !31
  br label %92

91:                                               ; preds = %71
  br label %92

92:                                               ; preds = %91, %89
  %93 = phi ptr [ %90, %89 ], [ @.str.546, %91 ]
  %94 = call i32 (ptr, ptr, ...) @BIO_printf(ptr noundef %86, ptr noundef @.str.545, ptr noundef %93)
  %95 = load ptr, ptr %2, align 8, !tbaa !73
  call void @SSL_get0_next_proto_negotiated(ptr noundef %95, ptr noundef %6, ptr noundef %7)
  %96 = load ptr, ptr %6, align 8, !tbaa !31
  %97 = icmp ne ptr %96, null
  br i1 %97, label %98, label %107

98:                                               ; preds = %92
  %99 = load ptr, ptr @bio_s_out, align 8, !tbaa !35
  %100 = call i32 (ptr, ptr, ...) @BIO_printf(ptr noundef %99, ptr noundef @.str.547)
  %101 = load ptr, ptr @bio_s_out, align 8, !tbaa !35
  %102 = load ptr, ptr %6, align 8, !tbaa !31
  %103 = load i32, ptr %7, align 4, !tbaa !4
  %104 = call i32 @BIO_write(ptr noundef %101, ptr noundef %102, i32 noundef %103)
  %105 = load ptr, ptr @bio_s_out, align 8, !tbaa !35
  %106 = call i32 (ptr, ptr, ...) @BIO_printf(ptr noundef %105, ptr noundef @.str.477)
  br label %107

107:                                              ; preds = %98, %92
  call void @llvm.lifetime.start.p0(i64 8, ptr %11) #10
  %108 = load ptr, ptr %2, align 8, !tbaa !73
  %109 = call ptr @SSL_get_selected_srtp_profile(ptr noundef %108)
  store ptr %109, ptr %11, align 8, !tbaa !146
  %110 = load ptr, ptr %11, align 8, !tbaa !146
  %111 = icmp ne ptr %110, null
  br i1 %111, label %112, label %118

112:                                              ; preds = %107
  %113 = load ptr, ptr @bio_s_out, align 8, !tbaa !35
  %114 = load ptr, ptr %11, align 8, !tbaa !146
  %115 = getelementptr inbounds nuw %struct.srtp_protection_profile_st, ptr %114, i32 0, i32 0
  %116 = load ptr, ptr %115, align 8, !tbaa !148
  %117 = call i32 (ptr, ptr, ...) @BIO_printf(ptr noundef %113, ptr noundef @.str.548, ptr noundef %116)
  br label %118

118:                                              ; preds = %112, %107
  call void @llvm.lifetime.end.p0(i64 8, ptr %11) #10
  %119 = load ptr, ptr %2, align 8, !tbaa !73
  %120 = call i32 @SSL_session_reused(ptr noundef %119)
  %121 = icmp ne i32 %120, 0
  br i1 %121, label %122, label %125

122:                                              ; preds = %118
  %123 = load ptr, ptr @bio_s_out, align 8, !tbaa !35
  %124 = call i32 (ptr, ptr, ...) @BIO_printf(ptr noundef %123, ptr noundef @.str.549)
  br label %125

125:                                              ; preds = %122, %118
  %126 = load ptr, ptr @bio_s_out, align 8, !tbaa !35
  %127 = load ptr, ptr %2, align 8, !tbaa !73
  call void @ssl_print_secure_renegotiation_notes(ptr noundef %126, ptr noundef %127)
  %128 = load ptr, ptr %2, align 8, !tbaa !73
  %129 = call i64 @SSL_get_options(ptr noundef %128)
  %130 = and i64 %129, 1073741824
  %131 = icmp ne i64 %130, 0
  br i1 %131, label %132, label %135

132:                                              ; preds = %125
  %133 = load ptr, ptr @bio_s_out, align 8, !tbaa !35
  %134 = call i32 (ptr, ptr, ...) @BIO_printf(ptr noundef %133, ptr noundef @.str.550)
  br label %135

135:                                              ; preds = %132, %125
  %136 = load ptr, ptr @keymatexportlabel, align 8, !tbaa !31
  %137 = icmp ne ptr %136, null
  br i1 %137, label %138, label %186

138:                                              ; preds = %135
  %139 = load ptr, ptr @bio_s_out, align 8, !tbaa !35
  %140 = call i32 (ptr, ptr, ...) @BIO_printf(ptr noundef %139, ptr noundef @.str.551)
  %141 = load ptr, ptr @bio_s_out, align 8, !tbaa !35
  %142 = load ptr, ptr @keymatexportlabel, align 8, !tbaa !31
  %143 = call i32 (ptr, ptr, ...) @BIO_printf(ptr noundef %141, ptr noundef @.str.552, ptr noundef %142)
  %144 = load ptr, ptr @bio_s_out, align 8, !tbaa !35
  %145 = load i32, ptr @keymatexportlen, align 4, !tbaa !4
  %146 = call i32 (ptr, ptr, ...) @BIO_printf(ptr noundef %144, ptr noundef @.str.553, i32 noundef %145)
  %147 = load i32, ptr @keymatexportlen, align 4, !tbaa !4
  %148 = sext i32 %147 to i64
  %149 = call ptr @app_malloc(i64 noundef %148, ptr noundef @.str.554)
  store ptr %149, ptr %8, align 8, !tbaa !31
  %150 = load ptr, ptr %2, align 8, !tbaa !73
  %151 = load ptr, ptr %8, align 8, !tbaa !31
  %152 = load i32, ptr @keymatexportlen, align 4, !tbaa !4
  %153 = sext i32 %152 to i64
  %154 = load ptr, ptr @keymatexportlabel, align 8, !tbaa !31
  %155 = load ptr, ptr @keymatexportlabel, align 8, !tbaa !31
  %156 = call i64 @strlen(ptr noundef %155) #11
  %157 = call i32 @SSL_export_keying_material(ptr noundef %150, ptr noundef %151, i64 noundef %153, ptr noundef %154, i64 noundef %156, ptr noundef null, i64 noundef 0, i32 noundef 0)
  %158 = icmp sle i32 %157, 0
  br i1 %158, label %159, label %162

159:                                              ; preds = %138
  %160 = load ptr, ptr @bio_s_out, align 8, !tbaa !35
  %161 = call i32 (ptr, ptr, ...) @BIO_printf(ptr noundef %160, ptr noundef @.str.555)
  br label %184

162:                                              ; preds = %138
  %163 = load ptr, ptr @bio_s_out, align 8, !tbaa !35
  %164 = call i32 (ptr, ptr, ...) @BIO_printf(ptr noundef %163, ptr noundef @.str.556)
  store i32 0, ptr %9, align 4, !tbaa !4
  br label %165

165:                                              ; preds = %178, %162
  %166 = load i32, ptr %9, align 4, !tbaa !4
  %167 = load i32, ptr @keymatexportlen, align 4, !tbaa !4
  %168 = icmp slt i32 %166, %167
  br i1 %168, label %169, label %181

169:                                              ; preds = %165
  %170 = load ptr, ptr @bio_s_out, align 8, !tbaa !35
  %171 = load ptr, ptr %8, align 8, !tbaa !31
  %172 = load i32, ptr %9, align 4, !tbaa !4
  %173 = sext i32 %172 to i64
  %174 = getelementptr inbounds i8, ptr %171, i64 %173
  %175 = load i8, ptr %174, align 1, !tbaa !47
  %176 = zext i8 %175 to i32
  %177 = call i32 (ptr, ptr, ...) @BIO_printf(ptr noundef %170, ptr noundef @.str.557, i32 noundef %176)
  br label %178

178:                                              ; preds = %169
  %179 = load i32, ptr %9, align 4, !tbaa !4
  %180 = add nsw i32 %179, 1
  store i32 %180, ptr %9, align 4, !tbaa !4
  br label %165, !llvm.loop !150

181:                                              ; preds = %165
  %182 = load ptr, ptr @bio_s_out, align 8, !tbaa !35
  %183 = call i32 (ptr, ptr, ...) @BIO_printf(ptr noundef %182, ptr noundef @.str.477)
  br label %184

184:                                              ; preds = %181, %159
  %185 = load ptr, ptr %8, align 8, !tbaa !31
  call void @CRYPTO_free(ptr noundef %185, ptr noundef @.str.412, i32 noundef 3140)
  br label %186

186:                                              ; preds = %184, %135
  %187 = load ptr, ptr @bio_s_out, align 8, !tbaa !35
  %188 = call i64 @BIO_ctrl(ptr noundef %187, i32 noundef 11, i64 noundef 0, ptr noundef null)
  call void @llvm.lifetime.end.p0(i64 4, ptr %9) #10
  call void @llvm.lifetime.end.p0(i64 8, ptr %8) #10
  call void @llvm.lifetime.end.p0(i64 4, ptr %7) #10
  call void @llvm.lifetime.end.p0(i64 8, ptr %6) #10
  call void @llvm.lifetime.end.p0(i64 8192, ptr %5) #10
  call void @llvm.lifetime.end.p0(i64 8, ptr %4) #10
  call void @llvm.lifetime.end.p0(i64 8, ptr %3) #10
  ret void
}