; Function Attrs: nounwind uwtable
define internal fastcc void @print_connection_info(ptr noundef nonnull %0) unnamed_addr #0 {
  %2 = alloca [8192 x i8], align 16
  %3 = alloca ptr, align 8
  %4 = alloca i32, align 4
  call void @llvm.lifetime.start.p0(i64 8192, ptr nonnull %2) #14
  call void @llvm.lifetime.start.p0(i64 8, ptr nonnull %3) #14
  call void @llvm.lifetime.start.p0(i64 4, ptr nonnull %4) #14
  %.b = load i1, ptr @s_brief, align 4
  br i1 %.b, label %5, label %6

5:                                                ; preds = %1
  tail call void @print_ssl_summary(ptr noundef nonnull %0) #14
  br label %6

6:                                                ; preds = %5, %1
  %7 = load ptr, ptr @bio_s_out, align 8, !tbaa !19
  %8 = tail call ptr @SSL_get_session(ptr noundef nonnull %0) #14
  %9 = tail call i32 @PEM_write_bio_SSL_SESSION(ptr noundef %7, ptr noundef %8) #14
  %10 = tail call ptr @SSL_get0_peer_certificate(ptr noundef nonnull %0) #14
  %.not = icmp eq ptr %10, null
  br i1 %.not, label %17, label %11

11:                                               ; preds = %6
  %12 = load ptr, ptr @bio_s_out, align 8, !tbaa !19
  %13 = tail call i32 (ptr, ptr, ...) @BIO_printf(ptr noundef %12, ptr noundef nonnull @.str.540) #14
  %14 = load ptr, ptr @bio_s_out, align 8, !tbaa !19
  %15 = tail call i32 @PEM_write_bio_X509(ptr noundef %14, ptr noundef nonnull %10) #14
  %16 = load ptr, ptr @bio_s_out, align 8, !tbaa !19
  tail call void @dump_cert_text(ptr noundef %16, ptr noundef nonnull %10) #14
  br label %17

17:                                               ; preds = %11, %6
  %18 = tail call i32 @SSL_get_negotiated_server_cert_type(ptr noundef nonnull %0) #14
  %19 = icmp eq i32 %18, 2
  br i1 %19, label %20, label %23

20:                                               ; preds = %17
  %21 = load ptr, ptr @bio_s_out, align 8, !tbaa !19
  %22 = tail call i32 (ptr, ptr, ...) @BIO_printf(ptr noundef %21, ptr noundef nonnull @.str.541) #14
  br label %23

23:                                               ; preds = %20, %17
  %24 = tail call i32 @SSL_get_negotiated_client_cert_type(ptr noundef nonnull %0) #14
  %25 = icmp eq i32 %24, 2
  br i1 %25, label %26, label %29

26:                                               ; preds = %23
  %27 = load ptr, ptr @bio_s_out, align 8, !tbaa !19
  %28 = tail call i32 (ptr, ptr, ...) @BIO_printf(ptr noundef %27, ptr noundef nonnull @.str.542) #14
  br label %29

29:                                               ; preds = %26, %23
  %.b35 = load i1, ptr @enable_client_rpk, align 4
  br i1 %.b35, label %30, label %37

30:                                               ; preds = %29
  %31 = tail call ptr @SSL_get0_peer_rpk(ptr noundef nonnull %0) #14
  %.not36 = icmp eq ptr %31, null
  br i1 %.not36, label %37, label %32

32:                                               ; preds = %30
  %33 = load ptr, ptr @bio_s_out, align 8, !tbaa !19
  %34 = tail call i32 (ptr, ptr, ...) @BIO_printf(ptr noundef %33, ptr noundef nonnull @.str.543) #14
  %35 = load ptr, ptr @bio_s_out, align 8, !tbaa !19
  %36 = tail call i32 @EVP_PKEY_print_public(ptr noundef %35, ptr noundef nonnull %31, i32 noundef 2, ptr noundef null) #14
  br label %37

37:                                               ; preds = %30, %32, %29
  %38 = call ptr @SSL_get_shared_ciphers(ptr noundef nonnull %0, ptr noundef nonnull %2, i32 noundef 8192) #14
  %.not37 = icmp eq ptr %38, null
  br i1 %.not37, label %42, label %39

39:                                               ; preds = %37
  %40 = load ptr, ptr @bio_s_out, align 8, !tbaa !19
  %41 = call i32 (ptr, ptr, ...) @BIO_printf(ptr noundef %40, ptr noundef nonnull @.str.544, ptr noundef nonnull %2) #14
  br label %42

42:                                               ; preds = %39, %37
  %43 = call ptr @SSL_get_current_cipher(ptr noundef nonnull %0) #14
  %44 = call ptr @SSL_CIPHER_get_name(ptr noundef %43) #14
  %45 = load ptr, ptr @bio_s_out, align 8, !tbaa !19
  %46 = call i32 @ssl_print_sigalgs(ptr noundef %45, ptr noundef nonnull %0) #14
  %47 = load ptr, ptr @bio_s_out, align 8, !tbaa !19
  %48 = call i32 @ssl_print_point_formats(ptr noundef %47, ptr noundef nonnull %0) #14
  %49 = load ptr, ptr @bio_s_out, align 8, !tbaa !19
  %50 = call i32 @ssl_print_groups(ptr noundef %49, ptr noundef nonnull %0, i32 noundef 0) #14
  %51 = load ptr, ptr @bio_s_out, align 8, !tbaa !19
  call void @print_ca_names(ptr noundef %51, ptr noundef nonnull %0) #14
  %52 = load ptr, ptr @bio_s_out, align 8, !tbaa !19
  %.not38 = icmp eq ptr %44, null
  %53 = select i1 %.not38, ptr @.str.546, ptr %44
  %54 = call i32 (ptr, ptr, ...) @BIO_printf(ptr noundef %52, ptr noundef nonnull @.str.545, ptr noundef nonnull %53) #14
  call void @SSL_get0_next_proto_negotiated(ptr noundef nonnull %0, ptr noundef nonnull %3, ptr noundef nonnull %4) #14
  %55 = load ptr, ptr %3, align 8, !tbaa !11
  %.not39 = icmp eq ptr %55, null
  br i1 %.not39, label %65, label %56

56:                                               ; preds = %42
  %57 = load ptr, ptr @bio_s_out, align 8, !tbaa !19
  %58 = call i32 (ptr, ptr, ...) @BIO_printf(ptr noundef %57, ptr noundef nonnull @.str.547) #14
  %59 = load ptr, ptr @bio_s_out, align 8, !tbaa !19
  %60 = load ptr, ptr %3, align 8, !tbaa !11
  %61 = load i32, ptr %4, align 4, !tbaa !13
  %62 = call i32 @BIO_write(ptr noundef %59, ptr noundef %60, i32 noundef %61) #14
  %63 = load ptr, ptr @bio_s_out, align 8, !tbaa !19
  %64 = call i32 (ptr, ptr, ...) @BIO_printf(ptr noundef %63, ptr noundef nonnull @.str.477) #14
  br label %65

65:                                               ; preds = %56, %42
  %66 = call ptr @SSL_get_selected_srtp_profile(ptr noundef nonnull %0) #14
  %.not40 = icmp eq ptr %66, null
  br i1 %.not40, label %71, label %67

67:                                               ; preds = %65
  %68 = load ptr, ptr @bio_s_out, align 8, !tbaa !19
  %69 = load ptr, ptr %66, align 8, !tbaa !93
  %70 = call i32 (ptr, ptr, ...) @BIO_printf(ptr noundef %68, ptr noundef nonnull @.str.548, ptr noundef %69) #14
  br label %71

71:                                               ; preds = %67, %65
  %72 = call i32 @SSL_session_reused(ptr noundef nonnull %0) #14
  %.not41 = icmp eq i32 %72, 0
  br i1 %.not41, label %76, label %73

73:                                               ; preds = %71
  %74 = load ptr, ptr @bio_s_out, align 8, !tbaa !19
  %75 = call i32 (ptr, ptr, ...) @BIO_printf(ptr noundef %74, ptr noundef nonnull @.str.549) #14
  br label %76

76:                                               ; preds = %73, %71
  %77 = load ptr, ptr @bio_s_out, align 8, !tbaa !19
  call void @ssl_print_secure_renegotiation_notes(ptr noundef %77, ptr noundef nonnull %0) #14
  %78 = call i64 @SSL_get_options(ptr noundef nonnull %0) #14
  %79 = and i64 %78, 1073741824
  %.not42 = icmp eq i64 %79, 0
  br i1 %.not42, label %83, label %80

80:                                               ; preds = %76
  %81 = load ptr, ptr @bio_s_out, align 8, !tbaa !19
  %82 = call i32 (ptr, ptr, ...) @BIO_printf(ptr noundef %81, ptr noundef nonnull @.str.550) #14
  br label %83

83:                                               ; preds = %80, %76
  %84 = load ptr, ptr @keymatexportlabel, align 8, !tbaa !11
  %.not43 = icmp eq ptr %84, null
  br i1 %.not43, label %121, label %85

85:                                               ; preds = %83
  %86 = load ptr, ptr @bio_s_out, align 8, !tbaa !19
  %87 = call i32 (ptr, ptr, ...) @BIO_printf(ptr noundef %86, ptr noundef nonnull @.str.551) #14
  %88 = load ptr, ptr @bio_s_out, align 8, !tbaa !19
  %89 = load ptr, ptr @keymatexportlabel, align 8, !tbaa !11
  %90 = call i32 (ptr, ptr, ...) @BIO_printf(ptr noundef %88, ptr noundef nonnull @.str.552, ptr noundef %89) #14
  %91 = load ptr, ptr @bio_s_out, align 8, !tbaa !19
  %92 = load i32, ptr @keymatexportlen, align 4, !tbaa !13
  %93 = call i32 (ptr, ptr, ...) @BIO_printf(ptr noundef %91, ptr noundef nonnull @.str.553, i32 noundef %92) #14
  %94 = load i32, ptr @keymatexportlen, align 4, !tbaa !13
  %95 = sext i32 %94 to i64
  %96 = call ptr @app_malloc(i64 noundef %95, ptr noundef nonnull @.str.554) #14
  %97 = load i32, ptr @keymatexportlen, align 4, !tbaa !13
  %98 = sext i32 %97 to i64
  %99 = load ptr, ptr @keymatexportlabel, align 8, !tbaa !11
  %100 = call i64 @strlen(ptr noundef nonnull dereferenceable(1) %99) #16
  %101 = call i32 @SSL_export_keying_material(ptr noundef nonnull %0, ptr noundef %96, i64 noundef %98, ptr noundef nonnull %99, i64 noundef %100, ptr noundef null, i64 noundef 0, i32 noundef 0) #14
  %102 = icmp slt i32 %101, 1
  %103 = load ptr, ptr @bio_s_out, align 8, !tbaa !19
  br i1 %102, label %104, label %106

104:                                              ; preds = %85
  %105 = call i32 (ptr, ptr, ...) @BIO_printf(ptr noundef %103, ptr noundef nonnull @.str.555) #14
  br label %120

106:                                              ; preds = %85
  %107 = call i32 (ptr, ptr, ...) @BIO_printf(ptr noundef %103, ptr noundef nonnull @.str.556) #14
  %108 = load i32, ptr @keymatexportlen, align 4, !tbaa !13
  %109 = icmp sgt i32 %108, 0
  br i1 %109, label %.lr.ph, label %._crit_edge

.lr.ph:                                           ; preds = %106, %.lr.ph
  %indvars.iv = phi i64 [ %indvars.iv.next, %.lr.ph ], [ 0, %106 ]
  %110 = load ptr, ptr @bio_s_out, align 8, !tbaa !19
  %111 = getelementptr inbounds nuw i8, ptr %96, i64 %indvars.iv
  %112 = load i8, ptr %111, align 1, !tbaa !31
  %113 = zext i8 %112 to i32
  %114 = call i32 (ptr, ptr, ...) @BIO_printf(ptr noundef %110, ptr noundef nonnull @.str.557, i32 noundef %113) #14
  %indvars.iv.next = add nuw nsw i64 %indvars.iv, 1
  %115 = load i32, ptr @keymatexportlen, align 4, !tbaa !13
  %116 = sext i32 %115 to i64
  %117 = icmp slt i64 %indvars.iv.next, %116
  br i1 %117, label %.lr.ph, label %._crit_edge, !llvm.loop !95

._crit_edge:                                      ; preds = %.lr.ph, %106
  %118 = load ptr, ptr @bio_s_out, align 8, !tbaa !19
  %119 = call i32 (ptr, ptr, ...) @BIO_printf(ptr noundef %118, ptr noundef nonnull @.str.477) #14
  br label %120

120:                                              ; preds = %._crit_edge, %104
  call void @CRYPTO_free(ptr noundef %96, ptr noundef nonnull @.str.412, i32 noundef 3140) #14
  br label %121

121:                                              ; preds = %120, %83
  %122 = load ptr, ptr @bio_s_out, align 8, !tbaa !19
  %123 = call i64 @BIO_ctrl(ptr noundef %122, i32 noundef 11, i64 noundef 0, ptr noundef null) #14
  call void @llvm.lifetime.end.p0(i64 4, ptr nonnull %4) #14
  call void @llvm.lifetime.end.p0(i64 8, ptr nonnull %3) #14
  call void @llvm.lifetime.end.p0(i64 8192, ptr nonnull %2) #14
  ret void
}